; Function Attrs: nounwind uwtable
define zeroext i1 @H5FO_marked(ptr noundef readonly captures(none) %0, i64 noundef %1) local_unnamed_addr #0 {
  %3 = alloca i64, align 8
  store i64 %1, ptr %3, align 8, !tbaa !36
  %4 = getelementptr inbounds nuw i8, ptr %0, i64 16
  %5 = load ptr, ptr %4, align 8, !tbaa !3
  %6 = getelementptr inbounds nuw i8, ptr %5, i64 1464
  %7 = load ptr, ptr %6, align 8, !tbaa !15
  %8 = call ptr @H5SL_search(ptr noundef %7, ptr noundef nonnull %3) #2
  %.not = icmp eq ptr %8, null
  br i1 %.not, label %13, label %9

9:                                                ; preds = %2
  %10 = getelementptr inbounds nuw i8, ptr %8, i64 16
  %11 = load i8, ptr %10, align 8, !tbaa !40, !range !41, !noundef !42
  %12 = trunc nuw i8 %11 to i1
  br label %13

13:                                               ; preds = %9, %2
  %.0 = phi i1 [ %12, %9 ], [ false, %2 ]
  ret i1 %.0
}